target datalayout = "e-m:e-p270:32:32-p271:32:32-p272:64:64-i64:64-i128:128-f80:128-n8:16:32:64-S128"
target triple = "x86_64-pc-linux-gnu"

@_ZN20SafepointSynchronize6_stateE = external global i32, align 4

; Function Attrs: mustprogress nounwind uwtable
define linkonce_odr hidden noundef zeroext i1 @_ZN20SafepointSynchronize16is_synchronizingEv() #1 comdat align 2 {
  %1 = load volatile i32, ptr @_ZN20SafepointSynchronize6_stateE, align 4
  %2 = icmp eq i32 %1, 1
  ret i1 %2
}

; Function Attrs: mustprogress nounwind uwtable
define linkonce_odr hidden void @_ZN2os22verify_stack_alignmentEv() #1 comdat align 2 {
  ret void
}

; Function Attrs: mustprogress nounwind uwtable
define hidden noundef zeroext i8 @_ZN12JVMCIRuntime13object_notifyEP10JavaThreadP7oopDesc(ptr noundef %0, ptr noundef %1) #1 align 2 {
  %3 = alloca i8, align 1
  %4 = alloca ptr, align 8
  %5 = alloca ptr, align 8
  store ptr %0, ptr %4, align 8
  store ptr %1, ptr %5, align 8
  call void @_ZN2os22verify_stack_alignmentEv()
  %6 = call noundef zeroext i1 @_ZN20SafepointSynchronize16is_synchronizingEv()
  br i1 %6, label %13, label %7

7:                                                ; preds = %2
  %8 = load ptr, ptr %5, align 8
  %9 = load ptr, ptr %4, align 8
  %10 = call noundef zeroext i1 @_ZN18ObjectSynchronizer12quick_notifyEP7oopDescP10JavaThreadb(ptr noundef %8, ptr noundef %9, i1 noundef zeroext false)
  br i1 %10, label %11, label %12

11:                                               ; preds = %7
  store i8 1, ptr %3, align 1
  br label %14

12:                                               ; preds = %7
  br label %13

13:                                               ; preds = %12, %2
  store i8 0, ptr %3, align 1
  br label %14

14:                                               ; preds = %13, %11
  %15 = load i8, ptr %3, align 1
  ret i8 %15
}