; Function Attrs: mustprogress nounwind uwtable
define hidden noundef zeroext range(i8 0, 2) i8 @_ZN12JVMCIRuntime13object_notifyEP10JavaThreadP7oopDesc(ptr noundef %0, ptr noundef %1) local_unnamed_addr #0 align 2 {
  %3 = load volatile i32, ptr @_ZN20SafepointSynchronize6_stateE, align 4
  %4 = icmp eq i32 %3, 1
  br i1 %4, label %7, label %5

5:                                                ; preds = %2
  %6 = tail call noundef zeroext i1 @_ZN18ObjectSynchronizer12quick_notifyEP7oopDescP10JavaThreadb(ptr noundef %1, ptr noundef %0, i1 noundef zeroext false) #15
  br i1 %6, label %8, label %7

7:                                                ; preds = %5, %2
  br label %8

8:                                                ; preds = %5, %7
  %.0 = phi i8 [ 0, %7 ], [ 1, %5 ]
  ret i8 %.0
}